target datalayout = "e-m:e-p270:32:32-p271:32:32-p272:64:64-i64:64-i128:128-f80:128-n8:16:32:64-S128"
target triple = "x86_64-unknown-linux-gnu"

%struct.QEMUClock = type { %struct.anon.0, i32, i8 }
%struct.anon.0 = type { ptr }
%struct.QEMUTimerList = type { ptr, %struct.QemuMutex, ptr, %struct.anon, ptr, ptr, %struct.QemuEvent }
%struct.QemuMutex = type { %union.pthread_mutex_t, i8 }
%union.pthread_mutex_t = type { %struct.__pthread_mutex_s }
%struct.__pthread_mutex_s = type { i32, i32, i32, i32, i32, i16, i16, %struct.__pthread_internal_list }
%struct.__pthread_internal_list = type { ptr, ptr }
%struct.anon = type { ptr, ptr }
%struct.QemuEvent = type { i32, i8 }
%struct.QEMUTimer = type { i64, ptr, ptr, ptr, ptr, i32, i32 }

@.str.1 = private unnamed_addr constant [26 x i8] c"../qemu/util/qemu-timer.c\00", align 1
@qemu_mutex_lock_func = external global ptr, align 8
@__func__.timerlist_run_timers = private unnamed_addr constant [21 x i8] c"timerlist_run_timers\00", align 1
@replay_mode = external global i32, align 4

; Function Attrs: nounwind sspstrong uwtable
define internal zeroext i1 @timer_expired_ns(ptr noundef %timer_head, i64 noundef %current_time) #0 {
entry:
  %timer_head.addr = alloca ptr, align 8
  %current_time.addr = alloca i64, align 8
  store ptr %timer_head, ptr %timer_head.addr, align 8
  store i64 %current_time, ptr %current_time.addr, align 8
  %0 = load ptr, ptr %timer_head.addr, align 8
  %tobool = icmp ne ptr %0, null
  br i1 %tobool, label %land.rhs, label %land.end

land.rhs:                                         ; preds = %entry
  %1 = load ptr, ptr %timer_head.addr, align 8
  %expire_time = getelementptr inbounds %struct.QEMUTimer, ptr %1, i32 0, i32 0
  %2 = load i64, ptr %expire_time, align 8
  %3 = load i64, ptr %current_time.addr, align 8
  %cmp = icmp sle i64 %2, %3
  br label %land.end

land.end:                                         ; preds = %land.rhs, %entry
  %4 = phi i1 [ false, %entry ], [ %cmp, %land.rhs ]
  ret i1 %4
}

; Function Attrs: nounwind sspstrong uwtable
define dso_local zeroext i1 @timerlist_run_timers(ptr noundef %timer_list) #0 {
entry:
  %retval = alloca i1, align 1
  %timer_list.addr = alloca ptr, align 8
  %ts = alloca ptr, align 8
  %current_time = alloca i64, align 8
  %progress = alloca i8, align 1
  %cb = alloca ptr, align 8
  %opaque = alloca ptr, align 8
  %tmp = alloca ptr, align 8
  %atomic-temp = alloca ptr, align 8
  %_f = alloca ptr, align 8
  %tmp21 = alloca ptr, align 8
  %atomic-temp22 = alloca ptr, align 8
  %_f45 = alloca ptr, align 8
  %tmp51 = alloca ptr, align 8
  %atomic-temp52 = alloca ptr, align 8
  store ptr %timer_list, ptr %timer_list.addr, align 8
  store i8 0, ptr %progress, align 1
  br label %while.cond

while.cond:                                       ; preds = %do.end, %entry
  br i1 false, label %while.body, label %while.end

while.body:                                       ; preds = %while.cond
  br label %do.body

do.body:                                          ; preds = %while.body
  call void @g_assertion_message_expr(ptr noundef null, ptr noundef @.str.1, i32 noundef 509, ptr noundef @__func__.timerlist_run_timers, ptr noundef null) #8
  unreachable

do.end:                                           ; No predecessors!
  br label %while.cond

while.end:                                        ; preds = %while.cond
  %0 = load ptr, ptr %timer_list.addr, align 8
  %active_timers = getelementptr inbounds %struct.QEMUTimerList, ptr %0, i32 0, i32 2
  %1 = load atomic i64, ptr %active_timers monotonic, align 8
  store i64 %1, ptr %atomic-temp, align 8
  %2 = load ptr, ptr %atomic-temp, align 8
  store ptr %2, ptr %tmp, align 8
  %3 = load ptr, ptr %tmp, align 8
  %tobool = icmp ne ptr %3, null
  br i1 %tobool, label %if.end, label %if.then

if.then:                                          ; preds = %while.end
  store i1 false, ptr %retval, align 1
  br label %return

if.end:                                           ; preds = %while.end
  %4 = load ptr, ptr %timer_list.addr, align 8
  %timers_done_ev = getelementptr inbounds %struct.QEMUTimerList, ptr %4, i32 0, i32 6
  call void @qemu_event_reset(ptr noundef %timers_done_ev)
  %5 = load ptr, ptr %timer_list.addr, align 8
  %clock = getelementptr inbounds %struct.QEMUTimerList, ptr %5, i32 0, i32 0
  %6 = load ptr, ptr %clock, align 8
  %enabled = getelementptr inbounds %struct.QEMUClock, ptr %6, i32 0, i32 2
  %7 = load i8, ptr %enabled, align 4
  %tobool1 = trunc i8 %7 to i1
  br i1 %tobool1, label %if.end3, label %if.then2

if.then2:                                         ; preds = %if.end
  br label %out

if.end3:                                          ; preds = %if.end
  %8 = load ptr, ptr %timer_list.addr, align 8
  %clock4 = getelementptr inbounds %struct.QEMUTimerList, ptr %8, i32 0, i32 0
  %9 = load ptr, ptr %clock4, align 8
  %type = getelementptr inbounds %struct.QEMUClock, ptr %9, i32 0, i32 1
  %10 = load i32, ptr %type, align 8
  switch i32 %10, label %sw.default [
    i32 0, label %sw.bb
    i32 1, label %sw.bb5
    i32 2, label %sw.bb6
    i32 3, label %sw.bb9
  ]

sw.bb:                                            ; preds = %if.end3
  br label %sw.epilog

sw.default:                                       ; preds = %if.end3
  br label %sw.bb5

sw.bb5:                                           ; preds = %sw.default, %if.end3
  br label %sw.epilog

sw.bb6:                                           ; preds = %if.end3
  %call = call zeroext i1 @replay_checkpoint(i32 noundef 5)
  br i1 %call, label %if.end8, label %if.then7

if.then7:                                         ; preds = %sw.bb6
  br label %out

if.end8:                                          ; preds = %sw.bb6
  br label %sw.epilog

sw.bb9:                                           ; preds = %if.end3
  %call10 = call zeroext i1 @replay_checkpoint(i32 noundef 6)
  br i1 %call10, label %if.end12, label %if.then11

if.then11:                                        ; preds = %sw.bb9
  br label %out

if.end12:                                         ; preds = %sw.bb9
  br label %sw.epilog

sw.epilog:                                        ; preds = %if.end12, %if.end8, %sw.bb5, %sw.bb
  %11 = load ptr, ptr %timer_list.addr, align 8
  %clock13 = getelementptr inbounds %struct.QEMUTimerList, ptr %11, i32 0, i32 0
  %12 = load ptr, ptr %clock13, align 8
  %type14 = getelementptr inbounds %struct.QEMUClock, ptr %12, i32 0, i32 1
  %13 = load i32, ptr %type14, align 8
  %call15 = call i64 @qemu_clock_get_ns(i32 noundef %13)
  store i64 %call15, ptr %current_time, align 8
  br label %while.cond16

while.cond16:                                     ; preds = %do.end19, %sw.epilog
  br i1 false, label %while.body17, label %while.end20

while.body17:                                     ; preds = %while.cond16
  br label %do.body18

do.body18:                                        ; preds = %while.body17
  call void @g_assertion_message_expr(ptr noundef null, ptr noundef @.str.1, i32 noundef 547, ptr noundef @__func__.timerlist_run_timers, ptr noundef null) #8
  unreachable

do.end19:                                         ; No predecessors!
  br label %while.cond16

while.end20:                                      ; preds = %while.cond16
  %14 = load atomic i64, ptr @qemu_mutex_lock_func monotonic, align 8
  store i64 %14, ptr %atomic-temp22, align 8
  %15 = load ptr, ptr %atomic-temp22, align 8
  store ptr %15, ptr %tmp21, align 8
  %16 = load ptr, ptr %tmp21, align 8
  store ptr %16, ptr %_f, align 8
  %17 = load ptr, ptr %_f, align 8
  %18 = load ptr, ptr %timer_list.addr, align 8
  %active_timers_lock = getelementptr inbounds %struct.QEMUTimerList, ptr %18, i32 0, i32 1
  call void %17(ptr noundef %active_timers_lock, ptr noundef @.str.1, i32 noundef 547)
  br label %while.cond23

while.cond23:                                     ; preds = %while.end50, %while.end20
  %19 = load ptr, ptr %timer_list.addr, align 8
  %active_timers24 = getelementptr inbounds %struct.QEMUTimerList, ptr %19, i32 0, i32 2
  %20 = load ptr, ptr %active_timers24, align 8
  store ptr %20, ptr %ts, align 8
  %tobool25 = icmp ne ptr %20, null
  br i1 %tobool25, label %while.body26, label %while.end54

while.body26:                                     ; preds = %while.cond23
  %21 = load ptr, ptr %ts, align 8
  %22 = load i64, ptr %current_time, align 8
  %call27 = call zeroext i1 @timer_expired_ns(ptr noundef %21, i64 noundef %22)
  br i1 %call27, label %if.end29, label %if.then28

if.then28:                                        ; preds = %while.body26
  br label %while.end54

if.end29:                                         ; preds = %while.body26
  %23 = load i32, ptr @replay_mode, align 4
  %cmp = icmp ne i32 %23, 0
  br i1 %cmp, label %land.lhs.true, label %if.end39

land.lhs.true:                                    ; preds = %if.end29
  %24 = load ptr, ptr %timer_list.addr, align 8
  %clock30 = getelementptr inbounds %struct.QEMUTimerList, ptr %24, i32 0, i32 0
  %25 = load ptr, ptr %clock30, align 8
  %type31 = getelementptr inbounds %struct.QEMUClock, ptr %25, i32 0, i32 1
  %26 = load i32, ptr %type31, align 8
  %cmp32 = icmp eq i32 %26, 1
  br i1 %cmp32, label %land.lhs.true33, label %if.end39

land.lhs.true33:                                  ; preds = %land.lhs.true
  %27 = load ptr, ptr %ts, align 8
  %attributes = getelementptr inbounds %struct.QEMUTimer, ptr %27, i32 0, i32 5
  %28 = load i32, ptr %attributes, align 8
  %and = and i32 %28, 1
  %tobool34 = icmp ne i32 %and, 0
  br i1 %tobool34, label %if.end39, label %land.lhs.true35

land.lhs.true35:                                  ; preds = %land.lhs.true33
  %call36 = call zeroext i1 @replay_checkpoint(i32 noundef 4)
  br i1 %call36, label %if.end39, label %if.then37

if.then37:                                        ; preds = %land.lhs.true35
  %29 = load ptr, ptr %timer_list.addr, align 8
  %active_timers_lock38 = getelementptr inbounds %struct.QEMUTimerList, ptr %29, i32 0, i32 1
  call void @qemu_mutex_unlock_impl(ptr noundef %active_timers_lock38, ptr noundef @.str.1, i32 noundef 563)
  br label %out

if.end39:                                         ; preds = %land.lhs.true35, %land.lhs.true33, %land.lhs.true, %if.end29
  %30 = load ptr, ptr %ts, align 8
  %next = getelementptr inbounds %struct.QEMUTimer, ptr %30, i32 0, i32 4
  %31 = load ptr, ptr %next, align 8
  %32 = load ptr, ptr %timer_list.addr, align 8
  %active_timers40 = getelementptr inbounds %struct.QEMUTimerList, ptr %32, i32 0, i32 2
  store ptr %31, ptr %active_timers40, align 8
  %33 = load ptr, ptr %ts, align 8
  %next41 = getelementptr inbounds %struct.QEMUTimer, ptr %33, i32 0, i32 4
  store ptr null, ptr %next41, align 8
  %34 = load ptr, ptr %ts, align 8
  %expire_time = getelementptr inbounds %struct.QEMUTimer, ptr %34, i32 0, i32 0
  store i64 -1, ptr %expire_time, align 8
  %35 = load ptr, ptr %ts, align 8
  %cb42 = getelementptr inbounds %struct.QEMUTimer, ptr %35, i32 0, i32 2
  %36 = load ptr, ptr %cb42, align 8
  store ptr %36, ptr %cb, align 8
  %37 = load ptr, ptr %ts, align 8
  %opaque43 = getelementptr inbounds %struct.QEMUTimer, ptr %37, i32 0, i32 3
  %38 = load ptr, ptr %opaque43, align 8
  store ptr %38, ptr %opaque, align 8
  %39 = load ptr, ptr %timer_list.addr, align 8
  %active_timers_lock44 = getelementptr inbounds %struct.QEMUTimerList, ptr %39, i32 0, i32 1
  call void @qemu_mutex_unlock_impl(ptr noundef %active_timers_lock44, ptr noundef @.str.1, i32 noundef 575)
  %40 = load ptr, ptr %cb, align 8
  %41 = load ptr, ptr %opaque, align 8
  call void %40(ptr noundef %41)
  br label %while.cond46

while.cond46:                                     ; preds = %do.end49, %if.end39
  br i1 false, label %while.body47, label %while.end50

while.body47:                                     ; preds = %while.cond46
  br label %do.body48

do.body48:                                        ; preds = %while.body47
  call void @g_assertion_message_expr(ptr noundef null, ptr noundef @.str.1, i32 noundef 577, ptr noundef @__func__.timerlist_run_timers, ptr noundef null) #8
  unreachable

do.end49:                                         ; No predecessors!
  br label %while.cond46

while.end50:                                      ; preds = %while.cond46
  %42 = load atomic i64, ptr @qemu_mutex_lock_func monotonic, align 8
  store i64 %42, ptr %atomic-temp52, align 8
  %43 = load ptr, ptr %atomic-temp52, align 8
  store ptr %43, ptr %tmp51, align 8
  %44 = load ptr, ptr %tmp51, align 8
  store ptr %44, ptr %_f45, align 8
  %45 = load ptr, ptr %_f45, align 8
  %46 = load ptr, ptr %timer_list.addr, align 8
  %active_timers_lock53 = getelementptr inbounds %struct.QEMUTimerList, ptr %46, i32 0, i32 1
  call void %45(ptr noundef %active_timers_lock53, ptr noundef @.str.1, i32 noundef 577)
  store i8 1, ptr %progress, align 1
  br label %while.cond23, !llvm.loop !13

while.end54:                                      ; preds = %if.then28, %while.cond23
  %47 = load ptr, ptr %timer_list.addr, align 8
  %active_timers_lock55 = getelementptr inbounds %struct.QEMUTimerList, ptr %47, i32 0, i32 1
  call void @qemu_mutex_unlock_impl(ptr noundef %active_timers_lock55, ptr noundef @.str.1, i32 noundef 581)
  br label %out

out:                                              ; preds = %while.end54, %if.then37, %if.then11, %if.then7, %if.then2
  %48 = load ptr, ptr %timer_list.addr, align 8
  %timers_done_ev56 = getelementptr inbounds %struct.QEMUTimerList, ptr %48, i32 0, i32 6
  call void @qemu_event_set(ptr noundef %timers_done_ev56)
  %49 = load i8, ptr %progress, align 1
  %tobool57 = trunc i8 %49 to i1
  store i1 %tobool57, ptr %retval, align 1
  br label %return

return:                                           ; preds = %out, %if.then
  %50 = load i1, ptr %retval, align 1
  ret i1 %50
}