; Function Attrs: nounwind sspstrong uwtable
define dso_local noundef zeroext i1 @timerlist_run_timers(ptr noundef %timer_list) local_unnamed_addr #0 {
entry:
  %active_timers = getelementptr inbounds nuw i8, ptr %timer_list, i64 56
  %0 = load atomic i64, ptr %active_timers monotonic, align 8
  %tobool.not = icmp eq i64 %0, 0
  br i1 %tobool.not, label %return, label %if.end

if.end:                                           ; preds = %entry
  %timers_done_ev = getelementptr inbounds nuw i8, ptr %timer_list, i64 96
  tail call void @qemu_event_reset(ptr noundef nonnull %timers_done_ev) #17
  %1 = load ptr, ptr %timer_list, align 8
  %enabled = getelementptr inbounds nuw i8, ptr %1, i64 12
  %2 = load i8, ptr %enabled, align 4
  %tobool1 = trunc i8 %2 to i1
  br i1 %tobool1, label %if.end3, label %out

if.end3:                                          ; preds = %if.end
  %type = getelementptr inbounds nuw i8, ptr %1, i64 8
  %3 = load i32, ptr %type, align 8
  switch i32 %3, label %sw.epilog [
    i32 3, label %sw.bb9
    i32 2, label %sw.bb6
  ]

sw.bb6:                                           ; preds = %if.end3
  %call = tail call zeroext i1 @replay_checkpoint(i32 noundef 5) #17
  br i1 %call, label %sw.epilog, label %out

sw.bb9:                                           ; preds = %if.end3
  %call10 = tail call zeroext i1 @replay_checkpoint(i32 noundef 6) #17
  br i1 %call10, label %sw.epilog, label %out

sw.epilog:                                        ; preds = %sw.bb9, %sw.bb6, %if.end3
  %4 = load ptr, ptr %timer_list, align 8
  %type14 = getelementptr inbounds nuw i8, ptr %4, i64 8
  %5 = load i32, ptr %type14, align 8
  %call15 = tail call i64 @qemu_clock_get_ns(i32 noundef %5)
  %6 = load atomic i64, ptr @qemu_mutex_lock_func monotonic, align 8
  %7 = inttoptr i64 %6 to ptr
  %active_timers_lock = getelementptr inbounds nuw i8, ptr %timer_list, i64 8
  tail call void %7(ptr noundef nonnull %active_timers_lock, ptr noundef nonnull @.str.1, i32 noundef 547) #17
  %8 = load ptr, ptr %active_timers, align 8
  %tobool25.not21 = icmp eq ptr %8, null
  br i1 %tobool25.not21, label %out.sink.split, label %timer_expired_ns.exit.preheader

timer_expired_ns.exit.preheader:                  ; preds = %sw.epilog
  %9 = load i64, ptr %8, align 8
  %cmp.i.not26 = icmp sgt i64 %9, %call15
  br i1 %cmp.i.not26, label %out.sink.split, label %if.end29

timer_expired_ns.exit:                            ; preds = %if.end39
  %10 = load i64, ptr %21, align 8
  %cmp.i.not = icmp sgt i64 %10, %call15
  br i1 %cmp.i.not, label %out.sink.split, label %if.end29, !llvm.loop !10

if.end29:                                         ; preds = %timer_expired_ns.exit.preheader, %timer_expired_ns.exit
  %progress.12227 = phi i1 [ true, %timer_expired_ns.exit ], [ false, %timer_expired_ns.exit.preheader ]
  %11 = phi ptr [ %21, %timer_expired_ns.exit ], [ %8, %timer_expired_ns.exit.preheader ]
  %12 = load i32, ptr @replay_mode, align 4
  %cmp.not = icmp eq i32 %12, 0
  br i1 %cmp.not, label %if.end39, label %land.lhs.true

land.lhs.true:                                    ; preds = %if.end29
  %13 = load ptr, ptr %timer_list, align 8
  %type31 = getelementptr inbounds nuw i8, ptr %13, i64 8
  %14 = load i32, ptr %type31, align 8
  %cmp32 = icmp eq i32 %14, 1
  br i1 %cmp32, label %land.lhs.true33, label %if.end39

land.lhs.true33:                                  ; preds = %land.lhs.true
  %attributes = getelementptr inbounds nuw i8, ptr %11, i64 40
  %15 = load i32, ptr %attributes, align 8
  %and = and i32 %15, 1
  %tobool34.not = icmp eq i32 %and, 0
  br i1 %tobool34.not, label %land.lhs.true35, label %if.end39

land.lhs.true35:                                  ; preds = %land.lhs.true33
  %call36 = tail call zeroext i1 @replay_checkpoint(i32 noundef 4) #17
  br i1 %call36, label %if.end39, label %out.sink.split

if.end39:                                         ; preds = %land.lhs.true35, %land.lhs.true33, %land.lhs.true, %if.end29
  %next = getelementptr inbounds nuw i8, ptr %11, i64 32
  %16 = load ptr, ptr %next, align 8
  store ptr %16, ptr %active_timers, align 8
  store ptr null, ptr %next, align 8
  store i64 -1, ptr %11, align 8
  %cb42 = getelementptr inbounds nuw i8, ptr %11, i64 16
  %17 = load ptr, ptr %cb42, align 8
  %opaque43 = getelementptr inbounds nuw i8, ptr %11, i64 24
  %18 = load ptr, ptr %opaque43, align 8
  tail call void @qemu_mutex_unlock_impl(ptr noundef nonnull %active_timers_lock, ptr noundef nonnull @.str.1, i32 noundef 575) #17
  tail call void %17(ptr noundef %18) #17
  %19 = load atomic i64, ptr @qemu_mutex_lock_func monotonic, align 8
  %20 = inttoptr i64 %19 to ptr
  tail call void %20(ptr noundef nonnull %active_timers_lock, ptr noundef nonnull @.str.1, i32 noundef 577) #17
  %21 = load ptr, ptr %active_timers, align 8
  %tobool25.not = icmp eq ptr %21, null
  br i1 %tobool25.not, label %out.sink.split, label %timer_expired_ns.exit, !llvm.loop !10

out.sink.split:                                   ; preds = %land.lhs.true35, %if.end39, %timer_expired_ns.exit, %timer_expired_ns.exit.preheader, %sw.epilog
  %.sink = phi i32 [ 581, %sw.epilog ], [ 581, %timer_expired_ns.exit.preheader ], [ 581, %timer_expired_ns.exit ], [ 581, %if.end39 ], [ 563, %land.lhs.true35 ]
  %progress.0.ph = phi i1 [ false, %sw.epilog ], [ false, %timer_expired_ns.exit.preheader ], [ true, %timer_expired_ns.exit ], [ true, %if.end39 ], [ %progress.12227, %land.lhs.true35 ]
  tail call void @qemu_mutex_unlock_impl(ptr noundef nonnull %active_timers_lock, ptr noundef nonnull @.str.1, i32 noundef %.sink) #17
  br label %out

out:                                              ; preds = %out.sink.split, %sw.bb9, %sw.bb6, %if.end
  %progress.0 = phi i1 [ false, %sw.bb6 ], [ false, %sw.bb9 ], [ false, %if.end ], [ %progress.0.ph, %out.sink.split ]
  tail call void @qemu_event_set(ptr noundef nonnull %timers_done_ev) #17
  br label %return

return:                                           ; preds = %entry, %out
  %retval.0 = phi i1 [ %progress.0, %out ], [ false, %entry ]
  ret i1 %retval.0
}